target datalayout = "e-m:e-p270:32:32-p271:32:32-p272:64:64-i64:64-i128:128-f80:128-n8:16:32:64-S128"
target triple = "x86_64-pc-linux-gnu"

%"struct.icu_77::SimpleDateFormat::NSOverride" = type { ptr, i32, ptr }

@_ZN6icu_7716SimpleDateFormat10NSOverrideD1Ev = unnamed_addr alias void (ptr), ptr @_ZN6icu_7716SimpleDateFormat10NSOverrideD2Ev

; Function Attrs: mustprogress nounwind uwtable
define void @_ZN6icu_7716SimpleDateFormat10NSOverride4freeEv(ptr noundef nonnull align 8 dereferenceable(24) %0) #0 align 2 {
  %2 = alloca ptr, align 8
  %3 = alloca ptr, align 8
  %4 = alloca ptr, align 8
  store ptr %0, ptr %2, align 8, !tbaa !25
  %5 = load ptr, ptr %2, align 8
  call void @llvm.lifetime.start.p0(i64 8, ptr %3) #12
  store ptr %5, ptr %3, align 8, !tbaa !25
  br label %6

6:                                                ; preds = %16, %1
  %7 = load ptr, ptr %3, align 8, !tbaa !25
  %8 = icmp ne ptr %7, null
  br i1 %8, label %9, label %18

9:                                                ; preds = %6
  call void @llvm.lifetime.start.p0(i64 8, ptr %4) #12
  %10 = load ptr, ptr %3, align 8, !tbaa !25
  %11 = getelementptr inbounds nuw %"struct.icu_77::SimpleDateFormat::NSOverride", ptr %10, i32 0, i32 2
  %12 = load ptr, ptr %11, align 8, !tbaa !30
  store ptr %12, ptr %4, align 8, !tbaa !25
  %13 = load ptr, ptr %3, align 8, !tbaa !25
  %14 = icmp eq ptr %13, null
  br i1 %14, label %16, label %15

15:                                               ; preds = %9
  call void @_ZN6icu_7716SimpleDateFormat10NSOverrideD1Ev(ptr noundef nonnull align 8 dereferenceable(24) %13) #12
  call void @_ZN6icu_777UMemorydlEPv(ptr noundef %13) #12
  br label %16

16:                                               ; preds = %15, %9
  %17 = load ptr, ptr %4, align 8, !tbaa !25
  store ptr %17, ptr %3, align 8, !tbaa !25
  call void @llvm.lifetime.end.p0(i64 8, ptr %4) #12
  br label %6, !llvm.loop !31

18:                                               ; preds = %6
  call void @llvm.lifetime.end.p0(i64 8, ptr %3) #12
  ret void
}