; Function Attrs: mustprogress nounwind uwtable
define void @_ZN6icu_7716SimpleDateFormat10NSOverride4freeEv(ptr noundef nonnull align 8 dereferenceable(24) %0) local_unnamed_addr #0 align 2 {
  br label %2

2:                                                ; preds = %1, %2
  %.05 = phi ptr [ %0, %1 ], [ %4, %2 ]
  %3 = getelementptr inbounds nuw i8, ptr %.05, i64 16
  %4 = load ptr, ptr %3, align 8, !tbaa !19
  tail call void @_ZN6icu_7716SimpleDateFormat10NSOverrideD1Ev(ptr noundef nonnull align 8 dereferenceable(24) %.05) #23
  tail call void @_ZN6icu_777UMemorydlEPv(ptr noundef nonnull %.05) #23
  %.not = icmp eq ptr %4, null
  br i1 %.not, label %5, label %2, !llvm.loop !20

5:                                                ; preds = %2
  ret void
}